; Function Attrs: mustprogress uwtable
define hidden void @_ZNK4lean12type_checker8is_deltaERKNS_4exprE(ptr dead_on_unwind noalias writable sret(%"class.lean::optional.53") align 8 %0, ptr noundef nonnull readonly align 8 captures(none) dereferenceable(48) %1, ptr noundef nonnull align 8 dereferenceable(8) %2) local_unnamed_addr #0 align 2 personality ptr @__gxx_personality_v0 {
  %4 = tail call noundef nonnull align 8 dereferenceable(8) ptr @_ZN4lean10get_app_fnERKNS_4exprE(ptr noundef nonnull align 8 dereferenceable(8) %2)
  %5 = load ptr, ptr %4, align 8, !tbaa !3
  %6 = getelementptr i8, ptr %5, i64 4
  %.val.i.i.i.i.i = load i32, ptr %6, align 4
  %.mask.i.i = and i32 %.val.i.i.i.i.i, -16777216
  %7 = icmp eq i32 %.mask.i.i, 67108864
  br i1 %7, label %8, label %_ZN4lean8optionalINS_13constant_infoEED2Ev.exit.thread

8:                                                ; preds = %3
  %9 = getelementptr inbounds nuw i8, ptr %1, i64 8
  %10 = load ptr, ptr %9, align 8, !tbaa !31
  %11 = getelementptr inbounds nuw i8, ptr %5, i64 8
  tail call void @_ZNK4lean11environment4findERKNS_4nameE(ptr dead_on_unwind writable sret(%"class.lean::optional.53") align 8 %0, ptr noundef nonnull align 8 dereferenceable(8) %10, ptr noundef nonnull align 8 dereferenceable(8) %11)
  %12 = load i8, ptr %0, align 8, !tbaa !169, !range !50, !noundef !51
  %13 = trunc nuw i8 %12 to i1
  br i1 %13, label %14, label %_ZN4lean8optionalINS_13constant_infoEED2Ev.exit.thread

14:                                               ; preds = %8
  %15 = getelementptr inbounds nuw i8, ptr %0, i64 8
  %16 = load ptr, ptr %15, align 8, !tbaa !3
  %17 = getelementptr i8, ptr %16, i64 4
  %.val.i.i.i.i = load i32, ptr %17, align 4
  %.mask.i.i8 = and i32 %.val.i.i.i.i, -16777216
  switch i32 %.mask.i.i8, label %18 [
    i32 33554432, label %_ZN4lean8optionalINS_13constant_infoEED2Ev.exit
    i32 16777216, label %_ZN4lean8optionalINS_13constant_infoEED2Ev.exit
  ]

18:                                               ; preds = %14
  %19 = ptrtoint ptr %16 to i64
  %20 = and i64 %19, 1
  %.not.i.i.i = icmp eq i64 %20, 0
  br i1 %.not.i.i.i, label %21, label %_ZN4lean8optionalINS_13constant_infoEED2Ev.exit.thread

21:                                               ; preds = %18
  %22 = load i32, ptr %16, align 4, !tbaa !8
  %23 = icmp sgt i32 %22, 1
  br i1 %23, label %24, label %26, !prof !11

24:                                               ; preds = %21
  %25 = add nsw i32 %22, -1
  store i32 %25, ptr %16, align 4, !tbaa !8
  br label %_ZN4lean8optionalINS_13constant_infoEED2Ev.exit.thread

26:                                               ; preds = %21
  %.not.i.i.i.i.i = icmp eq i32 %22, 0
  br i1 %.not.i.i.i.i.i, label %_ZN4lean8optionalINS_13constant_infoEED2Ev.exit.thread, label %27

27:                                               ; preds = %26
  invoke void @lean_dec_ref_cold(ptr noundef nonnull %16)
          to label %_ZN4lean8optionalINS_13constant_infoEED2Ev.exit.thread unwind label %28

28:                                               ; preds = %27
  %29 = landingpad { ptr, i32 }
          catch ptr null
  %30 = extractvalue { ptr, i32 } %29, 0
  tail call void @__clang_call_terminate(ptr %30) #21
  unreachable

_ZN4lean8optionalINS_13constant_infoEED2Ev.exit.thread: ; preds = %27, %26, %24, %18, %8, %3
  store i8 0, ptr %0, align 8, !tbaa !169, !alias.scope !240
  br label %_ZN4lean8optionalINS_13constant_infoEED2Ev.exit

_ZN4lean8optionalINS_13constant_infoEED2Ev.exit:  ; preds = %14, %14, %_ZN4lean8optionalINS_13constant_infoEED2Ev.exit.thread
  ret void
}